target datalayout = "e-m:e-p270:32:32-p271:32:32-p272:64:64-i64:64-i128:128-f80:128-n8:16:32:64-S128"
target triple = "x86_64-pc-linux-gnu"

%struct.gmx_ana_selmethod_t = type { ptr, i32, i32, i32, ptr, ptr, ptr, ptr, ptr, ptr, ptr, ptr, ptr, %struct.gmx_ana_selmethod_help_t }
%struct.gmx_ana_selmethod_help_t = type { ptr, ptr, i32, ptr }
%struct.gmx_ana_selvalue_t = type { i32, i32, %union.anon, i32 }
%union.anon = type { ptr }
%struct.t_methoddata_pos = type { ptr, %struct.gmx_ana_index_t, ptr, i8, ptr, i32 }
%struct.gmx_ana_index_t = type { i32, ptr, i32 }
%"class.gmx::SelectionTreeElement" = type { i32, %struct.gmx_ana_selvalue_t, ptr, i32, %union.anon.2, ptr, ptr, %"class.std::shared_ptr", %"class.std::shared_ptr", %"class.std::__cxx11::basic_string", %"struct.gmx::SelectionLocation" }
%union.anon.2 = type { %struct.anon }
%struct.anon = type { ptr, ptr, ptr, ptr }
%"class.std::shared_ptr" = type { %"class.std::__shared_ptr" }
%"class.std::__shared_ptr" = type { ptr, %"class.std::__shared_count" }
%"class.std::__shared_count" = type { ptr }
%"class.std::__cxx11::basic_string" = type { %"struct.std::__cxx11::basic_string<char>::_Alloc_hider", i64, %union.anon.4 }
%"struct.std::__cxx11::basic_string<char>::_Alloc_hider" = type { ptr }
%union.anon.4 = type { i64, [8 x i8] }
%"struct.gmx::SelectionLocation" = type { i32, i32 }
%class.anon = type { i8 }

@.str.2 = private unnamed_addr constant [131 x i8] c"generated/home/dtcxzyw/WorkSpace/Projects/compilers/llvm-opt-benchmark/bench/gromacs/gromacs/src/gromacs/selection/sm_position.cpp\00", align 1
@.str.11 = private unnamed_addr constant [19 x i8] c"d->type != nullptr\00", align 1
@.str.12 = private unnamed_addr constant [41 x i8] c"Position type should be set before flags\00", align 1
@"__PRETTY_FUNCTION__._ZZ28_gmx_selelem_set_kwpos_flagsPN3gmx20SelectionTreeElementEiENK3$_0clEv" = private unnamed_addr constant [107 x i8] c"auto _gmx_selelem_set_kwpos_flags(gmx::SelectionTreeElement *, int)::(anonymous class)::operator()() const\00", align 1

; Function Attrs: mustprogress uwtable
define internal void @_ZL20set_pos_method_flagsP19gmx_ana_selmethod_tP16t_methoddata_pos(ptr noundef %0, ptr noundef %1) #0 {
  %3 = alloca ptr, align 8
  %4 = alloca ptr, align 8
  %5 = alloca i8, align 1
  store ptr %0, ptr %3, align 8, !tbaa !68
  store ptr %1, ptr %4, align 8, !tbaa !11
  call void @llvm.lifetime.start.p0(i64 1, ptr %5) #6
  %6 = load ptr, ptr %4, align 8, !tbaa !11
  %7 = getelementptr inbounds nuw %struct.t_methoddata_pos, ptr %6, i32 0, i32 5
  %8 = load i32, ptr %7, align 8, !tbaa !23
  %9 = icmp ne i32 %8, -1
  br i1 %9, label %10, label %16

10:                                               ; preds = %2
  %11 = load ptr, ptr %4, align 8, !tbaa !11
  %12 = getelementptr inbounds nuw %struct.t_methoddata_pos, ptr %11, i32 0, i32 5
  %13 = load i32, ptr %12, align 8, !tbaa !23
  %14 = and i32 %13, 128
  %15 = icmp ne i32 %14, 0
  br label %16

16:                                               ; preds = %10, %2
  %17 = phi i1 [ false, %2 ], [ %15, %10 ]
  %18 = zext i1 %17 to i8
  store i8 %18, ptr %5, align 1, !tbaa !70
  %19 = load ptr, ptr %4, align 8, !tbaa !11
  %20 = getelementptr inbounds nuw %struct.t_methoddata_pos, ptr %19, i32 0, i32 4
  %21 = load ptr, ptr %20, align 8, !tbaa !22
  %22 = load i8, ptr %5, align 1, !tbaa !70, !range !48, !noundef !49
  %23 = trunc i8 %22 to i1
  %24 = call noundef i32 @_ZN3gmx29PositionCalculationCollection27requiredTopologyInfoForTypeEPKcb(ptr noundef %21, i1 noundef zeroext %23)
  switch i32 %24, label %39 [
    i32 2, label %25
    i32 1, label %34
    i32 0, label %39
  ]

25:                                               ; preds = %16
  %26 = load ptr, ptr %3, align 8, !tbaa !68
  %27 = getelementptr inbounds nuw %struct.gmx_ana_selmethod_t, ptr %26, i32 0, i32 2
  %28 = load i32, ptr %27, align 4, !tbaa !71
  %29 = or i32 %28, 2
  store i32 %29, ptr %27, align 4, !tbaa !71
  %30 = load ptr, ptr %3, align 8, !tbaa !68
  %31 = getelementptr inbounds nuw %struct.gmx_ana_selmethod_t, ptr %30, i32 0, i32 2
  %32 = load i32, ptr %31, align 4, !tbaa !71
  %33 = or i32 %32, 1
  store i32 %33, ptr %31, align 4, !tbaa !71
  br label %39

34:                                               ; preds = %16
  %35 = load ptr, ptr %3, align 8, !tbaa !68
  %36 = getelementptr inbounds nuw %struct.gmx_ana_selmethod_t, ptr %35, i32 0, i32 2
  %37 = load i32, ptr %36, align 4, !tbaa !71
  %38 = or i32 %37, 1
  store i32 %38, ptr %36, align 4, !tbaa !71
  br label %39

39:                                               ; preds = %16, %16, %34, %25
  call void @llvm.lifetime.end.p0(i64 1, ptr %5) #6
  ret void
}

; Function Attrs: inlinehint mustprogress uwtable
define internal void @"_ZZ28_gmx_selelem_set_kwpos_flagsPN3gmx20SelectionTreeElementEiENK3$_0clEv"(ptr noundef nonnull align 1 dereferenceable(1) %0) #3 align 2 {
  %2 = alloca ptr, align 8
  store ptr %0, ptr %2, align 8, !tbaa !11
  call void @_ZN3gmx8internal13assertHandlerEPKcS2_S2_S2_i(ptr noundef @.str.11, ptr noundef @.str.12, ptr noundef @"__PRETTY_FUNCTION__._ZZ28_gmx_selelem_set_kwpos_flagsPN3gmx20SelectionTreeElementEiENK3$_0clEv", ptr noundef @.str.2, i32 noundef 311) #7
  unreachable
}

; Function Attrs: mustprogress uwtable
define void @_Z28_gmx_selelem_set_kwpos_flagsPN3gmx20SelectionTreeElementEi(ptr noundef %0, i32 noundef %1) #0 {
  %3 = alloca ptr, align 8
  %4 = alloca i32, align 4
  %5 = alloca ptr, align 8
  %6 = alloca i32, align 4
  %7 = alloca %class.anon, align 1
  store ptr %0, ptr %3, align 8, !tbaa !50
  store i32 %1, ptr %4, align 4, !tbaa !4
  call void @llvm.lifetime.start.p0(i64 8, ptr %5) #6
  %8 = load ptr, ptr %3, align 8, !tbaa !50
  %9 = getelementptr inbounds nuw %"class.gmx::SelectionTreeElement", ptr %8, i32 0, i32 4
  %10 = getelementptr inbounds nuw %struct.anon, ptr %9, i32 0, i32 1
  %11 = load ptr, ptr %10, align 8, !tbaa !12
  store ptr %11, ptr %5, align 8, !tbaa !11
  %12 = load ptr, ptr %3, align 8, !tbaa !50
  %13 = getelementptr inbounds nuw %"class.gmx::SelectionTreeElement", ptr %12, i32 0, i32 0
  %14 = load i32, ptr %13, align 8, !tbaa !52
  %15 = icmp ne i32 %14, 1
  br i1 %15, label %31, label %16

16:                                               ; preds = %2
  %17 = load ptr, ptr %3, align 8, !tbaa !50
  %18 = getelementptr inbounds nuw %"class.gmx::SelectionTreeElement", ptr %17, i32 0, i32 4
  %19 = getelementptr inbounds nuw %struct.anon, ptr %18, i32 0, i32 0
  %20 = load ptr, ptr %19, align 8, !tbaa !12
  %21 = icmp ne ptr %20, null
  br i1 %21, label %22, label %31

22:                                               ; preds = %16
  %23 = load ptr, ptr %3, align 8, !tbaa !50
  %24 = getelementptr inbounds nuw %"class.gmx::SelectionTreeElement", ptr %23, i32 0, i32 4
  %25 = getelementptr inbounds nuw %struct.anon, ptr %24, i32 0, i32 0
  %26 = load ptr, ptr %25, align 8, !tbaa !12
  %27 = getelementptr inbounds nuw %struct.gmx_ana_selmethod_t, ptr %26, i32 0, i32 0
  %28 = load ptr, ptr %27, align 8, !tbaa !64
  %29 = load ptr, ptr @sm_keyword_pos, align 8, !tbaa !64
  %30 = icmp ne ptr %28, %29
  br i1 %30, label %31, label %32

31:                                               ; preds = %22, %16, %2
  store i32 1, ptr %6, align 4
  br label %54

32:                                               ; preds = %22
  %33 = load ptr, ptr %5, align 8, !tbaa !11
  %34 = getelementptr inbounds nuw %struct.t_methoddata_pos, ptr %33, i32 0, i32 5
  %35 = load i32, ptr %34, align 8, !tbaa !23
  %36 = icmp eq i32 %35, -1
  br i1 %36, label %37, label %53

37:                                               ; preds = %32
  %38 = load ptr, ptr %5, align 8, !tbaa !11
  %39 = getelementptr inbounds nuw %struct.t_methoddata_pos, ptr %38, i32 0, i32 4
  %40 = load ptr, ptr %39, align 8, !tbaa !22
  %41 = icmp ne ptr %40, null
  call void @llvm.lifetime.start.p0(i64 1, ptr %7) #6
  br i1 %41, label %42, label %43

42:                                               ; preds = %37
  br label %44

43:                                               ; preds = %37
  call void @"_ZZ28_gmx_selelem_set_kwpos_flagsPN3gmx20SelectionTreeElementEiENK3$_0clEv"(ptr noundef nonnull align 1 dereferenceable(1) %7)
  br label %44

44:                                               ; preds = %43, %42
  call void @llvm.lifetime.end.p0(i64 1, ptr %7) #6
  %45 = load i32, ptr %4, align 4, !tbaa !4
  %46 = load ptr, ptr %5, align 8, !tbaa !11
  %47 = getelementptr inbounds nuw %struct.t_methoddata_pos, ptr %46, i32 0, i32 5
  store i32 %45, ptr %47, align 8, !tbaa !23
  %48 = load ptr, ptr %3, align 8, !tbaa !50
  %49 = getelementptr inbounds nuw %"class.gmx::SelectionTreeElement", ptr %48, i32 0, i32 4
  %50 = getelementptr inbounds nuw %struct.anon, ptr %49, i32 0, i32 0
  %51 = load ptr, ptr %50, align 8, !tbaa !12
  %52 = load ptr, ptr %5, align 8, !tbaa !11
  call void @_ZL20set_pos_method_flagsP19gmx_ana_selmethod_tP16t_methoddata_pos(ptr noundef %51, ptr noundef %52)
  br label %53

53:                                               ; preds = %44, %32
  store i32 0, ptr %6, align 4
  br label %54

54:                                               ; preds = %53, %31
  call void @llvm.lifetime.end.p0(i64 8, ptr %5) #6
  %55 = load i32, ptr %6, align 4
  switch i32 %55, label %57 [
    i32 0, label %56
    i32 1, label %56
  ]

56:                                               ; preds = %54, %54
  ret void

57:                                               ; preds = %54
  unreachable
}