; Function Attrs: mustprogress uwtable
define void @_Z28_gmx_selelem_set_kwpos_flagsPN3gmx20SelectionTreeElementEi(ptr noundef readonly captures(none) %0, i32 noundef %1) local_unnamed_addr #0 {
  %3 = getelementptr inbounds nuw i8, ptr %0, i64 48
  %4 = getelementptr inbounds nuw i8, ptr %0, i64 56
  %5 = load ptr, ptr %4, align 8, !tbaa !4
  %6 = load i32, ptr %0, align 8, !tbaa !33
  %.not = icmp eq i32 %6, 1
  br i1 %.not, label %7, label %_ZL20set_pos_method_flagsP19gmx_ana_selmethod_tP16t_methoddata_pos.exit

7:                                                ; preds = %2
  %8 = load ptr, ptr %3, align 8, !tbaa !4
  %.not9 = icmp eq ptr %8, null
  br i1 %.not9, label %_ZL20set_pos_method_flagsP19gmx_ana_selmethod_tP16t_methoddata_pos.exit, label %9

9:                                                ; preds = %7
  %10 = load ptr, ptr %8, align 8, !tbaa !47
  %11 = load ptr, ptr @sm_keyword_pos, align 8, !tbaa !47
  %.not10 = icmp eq ptr %10, %11
  br i1 %.not10, label %12, label %_ZL20set_pos_method_flagsP19gmx_ana_selmethod_tP16t_methoddata_pos.exit

12:                                               ; preds = %9
  %13 = getelementptr inbounds nuw i8, ptr %5, i64 56
  %14 = load i32, ptr %13, align 8, !tbaa !19
  %15 = icmp eq i32 %14, -1
  br i1 %15, label %16, label %_ZL20set_pos_method_flagsP19gmx_ana_selmethod_tP16t_methoddata_pos.exit

16:                                               ; preds = %12
  %17 = getelementptr inbounds nuw i8, ptr %5, i64 48
  %18 = load ptr, ptr %17, align 8, !tbaa !18
  %.not11 = icmp eq ptr %18, null
  br i1 %.not11, label %19, label %20

19:                                               ; preds = %16
  tail call void @_ZN3gmx8internal13assertHandlerEPKcS2_S2_S2_i(ptr noundef nonnull @.str.11, ptr noundef nonnull @.str.12, ptr noundef nonnull @"__PRETTY_FUNCTION__._ZZ28_gmx_selelem_set_kwpos_flagsPN3gmx20SelectionTreeElementEiENK3$_0clEv", ptr noundef nonnull @.str.2, i32 noundef 311) #5
  unreachable

20:                                               ; preds = %16
  store i32 %1, ptr %13, align 8, !tbaa !19
  %21 = load ptr, ptr %3, align 8, !tbaa !4
  %.not.i = icmp ne i32 %1, -1
  %22 = and i32 %1, 128
  %23 = icmp ne i32 %22, 0
  %24 = and i1 %.not.i, %23
  %25 = tail call noundef i32 @_ZN3gmx29PositionCalculationCollection27requiredTopologyInfoForTypeEPKcb(ptr noundef nonnull %18, i1 noundef zeroext %24)
  switch i32 %25, label %_ZL20set_pos_method_flagsP19gmx_ana_selmethod_tP16t_methoddata_pos.exit [
    i32 2, label %.sink.split.i
    i32 1, label %26
  ]

26:                                               ; preds = %20
  br label %.sink.split.i

.sink.split.i:                                    ; preds = %26, %20
  %.sink3.i = phi i32 [ 1, %26 ], [ 3, %20 ]
  %27 = getelementptr inbounds nuw i8, ptr %21, i64 12
  %28 = load i32, ptr %27, align 4, !tbaa !53
  %29 = or i32 %28, %.sink3.i
  store i32 %29, ptr %27, align 4, !tbaa !53
  br label %_ZL20set_pos_method_flagsP19gmx_ana_selmethod_tP16t_methoddata_pos.exit

_ZL20set_pos_method_flagsP19gmx_ana_selmethod_tP16t_methoddata_pos.exit: ; preds = %.sink.split.i, %20, %12, %2, %7, %9
  ret void
}